target datalayout = "e-m:e-p270:32:32-p271:32:32-p272:64:64-i64:64-i128:128-f80:128-n8:16:32:64-S128"
target triple = "x86_64-pc-linux-gnu"

%struct.LogicalTapeSet = type { ptr, ptr, i32, i64, i64, i64, i8, ptr, i64, i64, i8 }
%struct.LogicalTape = type { ptr, i8, i8, i8, i64, i64, i64, i64, ptr, i32, i32, i32, i32, ptr, i32, i32 }
%struct.TapeBlockTrailer = type { i64, i64 }

; Function Attrs: inlinehint nounwind uwtable
define internal i64 @parent_offset(i64 noundef %0) #5 {
  %2 = alloca i64, align 8
  store i64 %0, ptr %2, align 8
  %3 = load i64, ptr %2, align 8
  %4 = sub i64 %3, 1
  %5 = udiv i64 %4, 2
  ret i64 %5
}

; Function Attrs: nounwind uwtable
define internal void @ltsReleaseBlock(ptr noundef %0, i64 noundef %1) #0 {
  %3 = alloca ptr, align 8
  %4 = alloca i64, align 8
  %5 = alloca ptr, align 8
  %6 = alloca i64, align 8
  %7 = alloca i32, align 4
  %8 = alloca i64, align 8
  store ptr %0, ptr %3, align 8
  store i64 %1, ptr %4, align 8
  call void @llvm.lifetime.start.p0(i64 8, ptr %5) #7
  call void @llvm.lifetime.start.p0(i64 8, ptr %6) #7
  %9 = load ptr, ptr %3, align 8
  %10 = getelementptr inbounds nuw %struct.LogicalTapeSet, ptr %9, i32 0, i32 6
  %11 = load i8, ptr %10, align 8, !range !4, !noundef !5
  %12 = trunc i8 %11 to i1
  br i1 %12, label %13, label %14

13:                                               ; preds = %2
  store i32 1, ptr %7, align 4
  br label %86

14:                                               ; preds = %2
  %15 = load ptr, ptr %3, align 8
  %16 = getelementptr inbounds nuw %struct.LogicalTapeSet, ptr %15, i32 0, i32 8
  %17 = load i64, ptr %16, align 8
  %18 = load ptr, ptr %3, align 8
  %19 = getelementptr inbounds nuw %struct.LogicalTapeSet, ptr %18, i32 0, i32 9
  %20 = load i64, ptr %19, align 8
  %21 = icmp uge i64 %17, %20
  br i1 %21, label %22, label %45

22:                                               ; preds = %14
  %23 = load ptr, ptr %3, align 8
  %24 = getelementptr inbounds nuw %struct.LogicalTapeSet, ptr %23, i32 0, i32 9
  %25 = load i64, ptr %24, align 8
  %26 = mul i64 %25, 2
  %27 = mul i64 %26, 8
  %28 = icmp ugt i64 %27, 1073741823
  br i1 %28, label %29, label %30

29:                                               ; preds = %22
  store i32 1, ptr %7, align 4
  br label %86

30:                                               ; preds = %22
  %31 = load ptr, ptr %3, align 8
  %32 = getelementptr inbounds nuw %struct.LogicalTapeSet, ptr %31, i32 0, i32 9
  %33 = load i64, ptr %32, align 8
  %34 = mul i64 %33, 2
  store i64 %34, ptr %32, align 8
  %35 = load ptr, ptr %3, align 8
  %36 = getelementptr inbounds nuw %struct.LogicalTapeSet, ptr %35, i32 0, i32 7
  %37 = load ptr, ptr %36, align 8
  %38 = load ptr, ptr %3, align 8
  %39 = getelementptr inbounds nuw %struct.LogicalTapeSet, ptr %38, i32 0, i32 9
  %40 = load i64, ptr %39, align 8
  %41 = mul i64 %40, 8
  %42 = call ptr @repalloc(ptr noundef %37, i64 noundef %41)
  %43 = load ptr, ptr %3, align 8
  %44 = getelementptr inbounds nuw %struct.LogicalTapeSet, ptr %43, i32 0, i32 7
  store ptr %42, ptr %44, align 8
  br label %45

45:                                               ; preds = %30, %14
  %46 = load ptr, ptr %3, align 8
  %47 = getelementptr inbounds nuw %struct.LogicalTapeSet, ptr %46, i32 0, i32 7
  %48 = load ptr, ptr %47, align 8
  store ptr %48, ptr %5, align 8
  %49 = load ptr, ptr %3, align 8
  %50 = getelementptr inbounds nuw %struct.LogicalTapeSet, ptr %49, i32 0, i32 8
  %51 = load i64, ptr %50, align 8
  store i64 %51, ptr %6, align 8
  %52 = load ptr, ptr %3, align 8
  %53 = getelementptr inbounds nuw %struct.LogicalTapeSet, ptr %52, i32 0, i32 8
  %54 = load i64, ptr %53, align 8
  %55 = add i64 %54, 1
  store i64 %55, ptr %53, align 8
  br label %56

56:                                               ; preds = %80, %45
  %57 = load i64, ptr %6, align 8
  %58 = icmp ne i64 %57, 0
  br i1 %58, label %59, label %81

59:                                               ; preds = %56
  call void @llvm.lifetime.start.p0(i64 8, ptr %8) #7
  %60 = load i64, ptr %6, align 8
  %61 = call i64 @parent_offset(i64 noundef %60)
  store i64 %61, ptr %8, align 8
  %62 = load ptr, ptr %5, align 8
  %63 = load i64, ptr %8, align 8
  %64 = getelementptr inbounds nuw i64, ptr %62, i64 %63
  %65 = load i64, ptr %64, align 8
  %66 = load i64, ptr %4, align 8
  %67 = icmp slt i64 %65, %66
  br i1 %67, label %68, label %69

68:                                               ; preds = %59
  store i32 3, ptr %7, align 4
  br label %78

69:                                               ; preds = %59
  %70 = load ptr, ptr %5, align 8
  %71 = load i64, ptr %8, align 8
  %72 = getelementptr inbounds nuw i64, ptr %70, i64 %71
  %73 = load i64, ptr %72, align 8
  %74 = load ptr, ptr %5, align 8
  %75 = load i64, ptr %6, align 8
  %76 = getelementptr inbounds nuw i64, ptr %74, i64 %75
  store i64 %73, ptr %76, align 8
  %77 = load i64, ptr %8, align 8
  store i64 %77, ptr %6, align 8
  store i32 0, ptr %7, align 4
  br label %78

78:                                               ; preds = %69, %68
  call void @llvm.lifetime.end.p0(i64 8, ptr %8) #7
  %79 = load i32, ptr %7, align 4
  switch i32 %79, label %89 [
    i32 0, label %80
    i32 3, label %81
  ]

80:                                               ; preds = %78
  br label %56, !llvm.loop !11

81:                                               ; preds = %78, %56
  %82 = load i64, ptr %4, align 8
  %83 = load ptr, ptr %5, align 8
  %84 = load i64, ptr %6, align 8
  %85 = getelementptr inbounds nuw i64, ptr %83, i64 %84
  store i64 %82, ptr %85, align 8
  store i32 0, ptr %7, align 4
  br label %86

86:                                               ; preds = %81, %29, %13
  call void @llvm.lifetime.end.p0(i64 8, ptr %6) #7
  call void @llvm.lifetime.end.p0(i64 8, ptr %5) #7
  %87 = load i32, ptr %7, align 4
  switch i32 %87, label %89 [
    i32 0, label %88
    i32 1, label %88
  ]

88:                                               ; preds = %86, %86
  ret void

89:                                               ; preds = %86, %78
  unreachable
}

; Function Attrs: nounwind uwtable
define dso_local void @LogicalTapeRewindForRead(ptr noundef %0, i64 noundef %1) #0 {
  %3 = alloca ptr, align 8
  %4 = alloca i64, align 8
  %5 = alloca ptr, align 8
  %6 = alloca i32, align 4
  store ptr %0, ptr %3, align 8
  store i64 %1, ptr %4, align 8
  call void @llvm.lifetime.start.p0(i64 8, ptr %5) #7
  %7 = load ptr, ptr %3, align 8
  %8 = getelementptr inbounds nuw %struct.LogicalTape, ptr %7, i32 0, i32 0
  %9 = load ptr, ptr %8, align 8
  store ptr %9, ptr %5, align 8
  %10 = load ptr, ptr %3, align 8
  %11 = getelementptr inbounds nuw %struct.LogicalTape, ptr %10, i32 0, i32 2
  %12 = load i8, ptr %11, align 1, !range !4, !noundef !5
  %13 = trunc i8 %12 to i1
  br i1 %13, label %14, label %15

14:                                               ; preds = %2
  store i64 8192, ptr %4, align 8
  br label %36

15:                                               ; preds = %2
  %16 = load i64, ptr %4, align 8
  %17 = icmp ult i64 %16, 8192
  br i1 %17, label %18, label %19

18:                                               ; preds = %15
  store i64 8192, ptr %4, align 8
  br label %19

19:                                               ; preds = %18, %15
  %20 = load i64, ptr %4, align 8
  %21 = load ptr, ptr %3, align 8
  %22 = getelementptr inbounds nuw %struct.LogicalTape, ptr %21, i32 0, i32 10
  %23 = load i32, ptr %22, align 4
  %24 = sext i32 %23 to i64
  %25 = icmp ugt i64 %20, %24
  br i1 %25, label %26, label %31

26:                                               ; preds = %19
  %27 = load ptr, ptr %3, align 8
  %28 = getelementptr inbounds nuw %struct.LogicalTape, ptr %27, i32 0, i32 10
  %29 = load i32, ptr %28, align 4
  %30 = sext i32 %29 to i64
  store i64 %30, ptr %4, align 8
  br label %31

31:                                               ; preds = %26, %19
  %32 = load i64, ptr %4, align 8
  %33 = urem i64 %32, 8192
  %34 = load i64, ptr %4, align 8
  %35 = sub i64 %34, %33
  store i64 %35, ptr %4, align 8
  br label %36

36:                                               ; preds = %31, %14
  %37 = load ptr, ptr %3, align 8
  %38 = getelementptr inbounds nuw %struct.LogicalTape, ptr %37, i32 0, i32 1
  %39 = load i8, ptr %38, align 8, !range !4, !noundef !5
  %40 = trunc i8 %39 to i1
  br i1 %40, label %41, label %72

41:                                               ; preds = %36
  %42 = load ptr, ptr %3, align 8
  %43 = getelementptr inbounds nuw %struct.LogicalTape, ptr %42, i32 0, i32 3
  %44 = load i8, ptr %43, align 2, !range !4, !noundef !5
  %45 = trunc i8 %44 to i1
  br i1 %45, label %46, label %69

46:                                               ; preds = %41
  br label %47

47:                                               ; preds = %46
  br label %48

48:                                               ; preds = %47
  br label %49

49:                                               ; preds = %48
  %50 = load ptr, ptr %3, align 8
  %51 = getelementptr inbounds nuw %struct.LogicalTape, ptr %50, i32 0, i32 12
  %52 = load i32, ptr %51, align 4
  %53 = sub i32 0, %52
  %54 = sext i32 %53 to i64
  %55 = load ptr, ptr %3, align 8
  %56 = getelementptr inbounds nuw %struct.LogicalTape, ptr %55, i32 0, i32 8
  %57 = load ptr, ptr %56, align 8
  %58 = getelementptr inbounds nuw i8, ptr %57, i64 8176
  %59 = getelementptr inbounds nuw %struct.TapeBlockTrailer, ptr %58, i32 0, i32 1
  store i64 %54, ptr %59, align 8
  %60 = load ptr, ptr %3, align 8
  %61 = getelementptr inbounds nuw %struct.LogicalTape, ptr %60, i32 0, i32 0
  %62 = load ptr, ptr %61, align 8
  %63 = load ptr, ptr %3, align 8
  %64 = getelementptr inbounds nuw %struct.LogicalTape, ptr %63, i32 0, i32 5
  %65 = load i64, ptr %64, align 8
  %66 = load ptr, ptr %3, align 8
  %67 = getelementptr inbounds nuw %struct.LogicalTape, ptr %66, i32 0, i32 8
  %68 = load ptr, ptr %67, align 8
  call void @ltsWriteBlock(ptr noundef %62, i64 noundef %65, ptr noundef %68)
  br label %69

69:                                               ; preds = %49, %41
  %70 = load ptr, ptr %3, align 8
  %71 = getelementptr inbounds nuw %struct.LogicalTape, ptr %70, i32 0, i32 1
  store i8 0, ptr %71, align 8
  br label %73

72:                                               ; preds = %36
  br label %73

73:                                               ; preds = %72, %69
  %74 = load ptr, ptr %3, align 8
  %75 = getelementptr inbounds nuw %struct.LogicalTape, ptr %74, i32 0, i32 8
  %76 = load ptr, ptr %75, align 8
  %77 = icmp ne ptr %76, null
  br i1 %77, label %78, label %82

78:                                               ; preds = %73
  %79 = load ptr, ptr %3, align 8
  %80 = getelementptr inbounds nuw %struct.LogicalTape, ptr %79, i32 0, i32 8
  %81 = load ptr, ptr %80, align 8
  call void @pfree(ptr noundef %81)
  br label %82

82:                                               ; preds = %78, %73
  %83 = load ptr, ptr %3, align 8
  %84 = getelementptr inbounds nuw %struct.LogicalTape, ptr %83, i32 0, i32 8
  store ptr null, ptr %84, align 8
  %85 = load i64, ptr %4, align 8
  %86 = trunc i64 %85 to i32
  %87 = load ptr, ptr %3, align 8
  %88 = getelementptr inbounds nuw %struct.LogicalTape, ptr %87, i32 0, i32 9
  store i32 %86, ptr %88, align 8
  %89 = load ptr, ptr %3, align 8
  %90 = getelementptr inbounds nuw %struct.LogicalTape, ptr %89, i32 0, i32 13
  %91 = load ptr, ptr %90, align 8
  %92 = icmp ne ptr %91, null
  br i1 %92, label %93, label %124

93:                                               ; preds = %82
  call void @llvm.lifetime.start.p0(i64 4, ptr %6) #7
  %94 = load ptr, ptr %3, align 8
  %95 = getelementptr inbounds nuw %struct.LogicalTape, ptr %94, i32 0, i32 14
  %96 = load i32, ptr %95, align 8
  store i32 %96, ptr %6, align 4
  br label %97

97:                                               ; preds = %111, %93
  %98 = load i32, ptr %6, align 4
  %99 = icmp sgt i32 %98, 0
  br i1 %99, label %101, label %100

100:                                              ; preds = %97
  call void @llvm.lifetime.end.p0(i64 4, ptr %6) #7
  br label %114

101:                                              ; preds = %97
  %102 = load ptr, ptr %5, align 8
  %103 = load ptr, ptr %3, align 8
  %104 = getelementptr inbounds nuw %struct.LogicalTape, ptr %103, i32 0, i32 13
  %105 = load ptr, ptr %104, align 8
  %106 = load i32, ptr %6, align 4
  %107 = sub i32 %106, 1
  %108 = sext i32 %107 to i64
  %109 = getelementptr inbounds i64, ptr %105, i64 %108
  %110 = load i64, ptr %109, align 8
  call void @ltsReleaseBlock(ptr noundef %102, i64 noundef %110)
  br label %111

111:                                              ; preds = %101
  %112 = load i32, ptr %6, align 4
  %113 = add i32 %112, -1
  store i32 %113, ptr %6, align 4
  br label %97, !llvm.loop !10

114:                                              ; preds = %100
  %115 = load ptr, ptr %3, align 8
  %116 = getelementptr inbounds nuw %struct.LogicalTape, ptr %115, i32 0, i32 13
  %117 = load ptr, ptr %116, align 8
  call void @pfree(ptr noundef %117)
  %118 = load ptr, ptr %3, align 8
  %119 = getelementptr inbounds nuw %struct.LogicalTape, ptr %118, i32 0, i32 13
  store ptr null, ptr %119, align 8
  %120 = load ptr, ptr %3, align 8
  %121 = getelementptr inbounds nuw %struct.LogicalTape, ptr %120, i32 0, i32 14
  store i32 0, ptr %121, align 8
  %122 = load ptr, ptr %3, align 8
  %123 = getelementptr inbounds nuw %struct.LogicalTape, ptr %122, i32 0, i32 15
  store i32 0, ptr %123, align 4
  br label %124

124:                                              ; preds = %114, %82
  call void @llvm.lifetime.end.p0(i64 8, ptr %5) #7
  ret void
}