; Function Attrs: nounwind uwtable
define dso_local void @LogicalTapeRewindForRead(ptr noundef captures(none) initializes((56, 60)) %0, i64 noundef %1) local_unnamed_addr #0 {
  %3 = load ptr, ptr %0, align 8
  %4 = getelementptr inbounds nuw i8, ptr %0, i64 9
  %5 = load i8, ptr %4, align 1, !range !4, !noundef !5
  %6 = trunc nuw i8 %5 to i1
  br i1 %6, label %13, label %7

7:                                                ; preds = %2
  %spec.store.select = tail call i64 @llvm.umax.i64(i64 %1, i64 8192)
  %8 = getelementptr inbounds nuw i8, ptr %0, i64 60
  %9 = load i32, ptr %8, align 4
  %10 = sext i32 %9 to i64
  %spec.select = tail call i64 @llvm.umin.i64(i64 %spec.store.select, i64 %10)
  %11 = trunc i64 %spec.select to i32
  %12 = and i32 %11, -8192
  br label %13

13:                                               ; preds = %2, %7
  %.031 = phi i32 [ %12, %7 ], [ 8192, %2 ]
  %14 = getelementptr inbounds nuw i8, ptr %0, i64 8
  %15 = load i8, ptr %14, align 8, !range !4, !noundef !5
  %16 = trunc nuw i8 %15 to i1
  br i1 %16, label %17, label %34

17:                                               ; preds = %13
  %18 = getelementptr inbounds nuw i8, ptr %0, i64 10
  %19 = load i8, ptr %18, align 2, !range !4, !noundef !5
  %20 = trunc nuw i8 %19 to i1
  br i1 %20, label %21, label %33

21:                                               ; preds = %17
  %22 = getelementptr inbounds nuw i8, ptr %0, i64 68
  %23 = load i32, ptr %22, align 4
  %24 = sub i32 0, %23
  %25 = sext i32 %24 to i64
  %26 = getelementptr inbounds nuw i8, ptr %0, i64 48
  %27 = load ptr, ptr %26, align 8
  %28 = getelementptr inbounds nuw i8, ptr %27, i64 8184
  store i64 %25, ptr %28, align 8
  %29 = load ptr, ptr %0, align 8
  %30 = getelementptr inbounds nuw i8, ptr %0, i64 24
  %31 = load i64, ptr %30, align 8
  %32 = load ptr, ptr %26, align 8
  tail call fastcc void @ltsWriteBlock(ptr noundef %29, i64 noundef %31, ptr noundef %32)
  br label %33

33:                                               ; preds = %21, %17
  store i8 0, ptr %14, align 8
  br label %34

34:                                               ; preds = %13, %33
  %35 = getelementptr inbounds nuw i8, ptr %0, i64 48
  %36 = load ptr, ptr %35, align 8
  %.not = icmp eq ptr %36, null
  br i1 %.not, label %38, label %37

37:                                               ; preds = %34
  tail call void @pfree(ptr noundef nonnull %36) #10
  br label %38

38:                                               ; preds = %37, %34
  store ptr null, ptr %35, align 8
  %39 = getelementptr inbounds nuw i8, ptr %0, i64 56
  store i32 %.031, ptr %39, align 8
  %40 = getelementptr inbounds nuw i8, ptr %0, i64 72
  %41 = load ptr, ptr %40, align 8
  %.not34 = icmp eq ptr %41, null
  br i1 %.not34, label %83, label %42

42:                                               ; preds = %38
  %43 = getelementptr inbounds nuw i8, ptr %0, i64 80
  %44 = load i32, ptr %43, align 8
  %45 = icmp sgt i32 %44, 0
  br i1 %45, label %.lr.ph, label %._crit_edge

.lr.ph:                                           ; preds = %42
  %46 = getelementptr inbounds nuw i8, ptr %3, i64 48
  %47 = getelementptr inbounds nuw i8, ptr %3, i64 64
  %48 = getelementptr inbounds nuw i8, ptr %3, i64 72
  %49 = getelementptr inbounds nuw i8, ptr %3, i64 56
  %50 = load i8, ptr %46, align 8, !range !4, !noundef !5
  %51 = trunc nuw i8 %50 to i1
  br i1 %51, label %._crit_edge, label %.lr.ph.split.preheader

.lr.ph.split.preheader:                           ; preds = %.lr.ph
  %52 = zext nneg i32 %44 to i64
  br label %.lr.ph.split

._crit_edge.loopexit36:                           ; preds = %ltsReleaseBlock.exit
  %.pre = load ptr, ptr %40, align 8
  br label %._crit_edge

._crit_edge:                                      ; preds = %.lr.ph, %._crit_edge.loopexit36, %42
  %53 = phi ptr [ %.pre, %._crit_edge.loopexit36 ], [ %41, %42 ], [ %41, %.lr.ph ]
  tail call void @pfree(ptr noundef %53) #10
  tail call void @llvm.memset.p0.i64(ptr noundef nonnull align 8 dereferenceable(16) %40, i8 0, i64 16, i1 false)
  br label %83

.lr.ph.split:                                     ; preds = %.lr.ph.split.preheader, %ltsReleaseBlock.exit
  %indvars.iv = phi i64 [ %52, %.lr.ph.split.preheader ], [ %indvars.iv.next, %ltsReleaseBlock.exit ]
  %54 = load ptr, ptr %40, align 8
  %55 = getelementptr i64, ptr %54, i64 %indvars.iv
  %56 = getelementptr i8, ptr %55, i64 -8
  %57 = load i64, ptr %56, align 8
  %58 = load i8, ptr %46, align 8, !range !4, !noundef !5
  %59 = trunc nuw i8 %58 to i1
  br i1 %59, label %ltsReleaseBlock.exit, label %60

60:                                               ; preds = %.lr.ph.split
  %61 = load i64, ptr %47, align 8
  %62 = load i64, ptr %48, align 8
  %.not.i = icmp ult i64 %61, %62
  br i1 %.not.i, label %._crit_edge.i, label %63

._crit_edge.i:                                    ; preds = %60
  %.pre.i = load ptr, ptr %49, align 8
  br label %70

63:                                               ; preds = %60
  %64 = shl i64 %62, 4
  %65 = icmp ugt i64 %64, 1073741823
  br i1 %65, label %ltsReleaseBlock.exit, label %66

66:                                               ; preds = %63
  %67 = shl i64 %62, 1
  store i64 %67, ptr %48, align 8
  %68 = load ptr, ptr %49, align 8
  %69 = tail call ptr @repalloc(ptr noundef %68, i64 noundef %64) #10
  store ptr %69, ptr %49, align 8
  %.pre36.i = load i64, ptr %47, align 8
  br label %70

70:                                               ; preds = %66, %._crit_edge.i
  %71 = phi i64 [ %61, %._crit_edge.i ], [ %.pre36.i, %66 ]
  %72 = phi ptr [ %.pre.i, %._crit_edge.i ], [ %69, %66 ]
  %73 = add i64 %71, 1
  store i64 %73, ptr %47, align 8
  %.not2832.i = icmp eq i64 %71, 0
  br i1 %.not2832.i, label %.thread.i, label %.lr.ph.i

.lr.ph.i:                                         ; preds = %70, %79
  %.033.i = phi i64 [ %75, %79 ], [ %71, %70 ]
  %74 = add i64 %.033.i, -1
  %75 = lshr i64 %74, 1
  %76 = getelementptr inbounds nuw i64, ptr %72, i64 %75
  %77 = load i64, ptr %76, align 8
  %78 = icmp slt i64 %77, %57
  br i1 %78, label %.thread.i, label %79

79:                                               ; preds = %.lr.ph.i
  %80 = getelementptr inbounds nuw i64, ptr %72, i64 %.033.i
  store i64 %77, ptr %80, align 8
  %.not28.i = icmp ult i64 %74, 2
  br i1 %.not28.i, label %.thread.i, label %.lr.ph.i

.thread.i:                                        ; preds = %79, %.lr.ph.i, %70
  %.0.lcssa.i = phi i64 [ 0, %70 ], [ %75, %79 ], [ %.033.i, %.lr.ph.i ]
  %81 = getelementptr inbounds nuw i64, ptr %72, i64 %.0.lcssa.i
  store i64 %57, ptr %81, align 8
  br label %ltsReleaseBlock.exit

ltsReleaseBlock.exit:                             ; preds = %.lr.ph.split, %63, %.thread.i
  %indvars.iv.next = add nsw i64 %indvars.iv, -1
  %82 = icmp sgt i64 %indvars.iv, 1
  br i1 %82, label %.lr.ph.split, label %._crit_edge.loopexit36, !llvm.loop !10

83:                                               ; preds = %._crit_edge, %38
  ret void
}